target datalayout = "e-m:e-p270:32:32-p271:32:32-p272:64:64-i64:64-i128:128-f80:128-n8:16:32:64-S128"
target triple = "x86_64-pc-linux-gnu"

%struct.anon.2 = type { i32, ptr }

@.str.48 = private unnamed_addr constant [15 x i8] c"Active Locale:\00", align 1
@.str.56 = private unnamed_addr constant [6 x i8] c"%s=%s\00", align 1
@.str.57 = private unnamed_addr constant [10 x i8] c"<unknown>\00", align 1

; Function Attrs: mustprogress nounwind uwtable
define hidden void @_ZN2os19print_active_localeEP12outputStream(ptr noundef %0) #1 align 2 {
  %2 = alloca ptr, align 8
  %3 = alloca [8 x %struct.anon.2], align 16
  %4 = alloca i32, align 4
  %5 = alloca ptr, align 8
  store ptr %0, ptr %2, align 8
  %6 = load ptr, ptr %2, align 8
  call void (ptr, ptr, ...) @_ZN12outputStream8print_crEPKcz(ptr noundef nonnull align 8 dereferenceable(56) %6, ptr noundef @.str.48)
  call void @llvm.memcpy.p0.p0.i64(ptr align 16 %3, ptr align 16 @__const._ZN2os19print_active_localeEP12outputStream.categories, i64 128, i1 false)
  store i32 0, ptr %4, align 4
  br label %7

7:                                                ; preds = %34, %1
  %8 = load i32, ptr %4, align 4
  %9 = sext i32 %8 to i64
  %10 = getelementptr inbounds [8 x %struct.anon.2], ptr %3, i64 0, i64 %9
  %11 = getelementptr inbounds %struct.anon.2, ptr %10, i32 0, i32 0
  %12 = load i32, ptr %11, align 16
  %13 = icmp ne i32 %12, -1
  br i1 %13, label %14, label %37

14:                                               ; preds = %7
  %15 = load i32, ptr %4, align 4
  %16 = sext i32 %15 to i64
  %17 = getelementptr inbounds [8 x %struct.anon.2], ptr %3, i64 0, i64 %16
  %18 = getelementptr inbounds %struct.anon.2, ptr %17, i32 0, i32 0
  %19 = load i32, ptr %18, align 16
  %20 = call ptr @setlocale(i32 noundef %19, ptr noundef null) #7
  store ptr %20, ptr %5, align 8
  %21 = load ptr, ptr %2, align 8
  %22 = load i32, ptr %4, align 4
  %23 = sext i32 %22 to i64
  %24 = getelementptr inbounds [8 x %struct.anon.2], ptr %3, i64 0, i64 %23
  %25 = getelementptr inbounds %struct.anon.2, ptr %24, i32 0, i32 1
  %26 = load ptr, ptr %25, align 8
  %27 = load ptr, ptr %5, align 8
  %28 = icmp ne ptr %27, null
  br i1 %28, label %29, label %31

29:                                               ; preds = %14
  %30 = load ptr, ptr %5, align 8
  br label %32

31:                                               ; preds = %14
  br label %32

32:                                               ; preds = %31, %29
  %33 = phi ptr [ %30, %29 ], [ @.str.57, %31 ]
  call void (ptr, ptr, ...) @_ZN12outputStream8print_crEPKcz(ptr noundef nonnull align 8 dereferenceable(56) %21, ptr noundef @.str.56, ptr noundef %26, ptr noundef %33)
  br label %34

34:                                               ; preds = %32
  %35 = load i32, ptr %4, align 4
  %36 = add nsw i32 %35, 1
  store i32 %36, ptr %4, align 4
  br label %7, !llvm.loop !15

37:                                               ; preds = %7
  ret void
}