; Function Attrs: mustprogress nounwind uwtable
define hidden void @_ZN2os19print_active_localeEP12outputStream(ptr noundef nonnull %0) local_unnamed_addr #1 align 2 {
  tail call void (ptr, ptr, ...) @_ZN12outputStream8print_crEPKcz(ptr noundef nonnull align 8 dereferenceable(56) %0, ptr noundef nonnull @.str.48) #25
  br label %2

2:                                                ; preds = %1, %2
  %indvars.iv = phi i64 [ 0, %1 ], [ %indvars.iv.next, %2 ]
  %3 = phi i32 [ 6, %1 ], [ %10, %2 ]
  %4 = phi ptr [ @__const._ZN2os19print_active_localeEP12outputStream.categories, %1 ], [ %9, %2 ]
  %5 = tail call ptr @setlocale(i32 noundef %3, ptr noundef null) #25
  %6 = getelementptr inbounds i8, ptr %4, i64 8
  %7 = load ptr, ptr %6, align 8
  %.not8 = icmp eq ptr %5, null
  %8 = select i1 %.not8, ptr @.str.57, ptr %5
  tail call void (ptr, ptr, ...) @_ZN12outputStream8print_crEPKcz(ptr noundef nonnull align 8 dereferenceable(56) %0, ptr noundef nonnull @.str.56, ptr noundef %7, ptr noundef nonnull %8) #25
  %indvars.iv.next = add nuw nsw i64 %indvars.iv, 1
  %9 = getelementptr inbounds [8 x %struct.anon.2], ptr @__const._ZN2os19print_active_localeEP12outputStream.categories, i64 0, i64 %indvars.iv.next
  %10 = load i32, ptr %9, align 16
  %exitcond = icmp eq i64 %indvars.iv.next, 7
  br i1 %exitcond, label %11, label %2, !llvm.loop !14

11:                                               ; preds = %2
  ret void
}